INFO: [SIM 2] *************** CSIM start ***************
INFO: [SIM 4] CSIM will launch CLANG as the compiler.
   Compiling ../../../../../../testbench_par_multicore_multicycle_ip.cpp in debug mode
   Generating csim.exe
0000: 00351293      slli t0, a0, 3
      t0  =                8 (       8)
0004: 00151313      slli t1, a0, 1
      t1  =                2 (       2)
0008: 00000513      li a0, 0
      a0  =                0 (       0)
0012: 006285b3      add a1, t0, t1
      a1  =               10 (       a)
0016: 00000613      li a2, 0
      a2  =                0 (       0)
0020: 02860693      addi a3, a2, 40
      a3  =               40 (      28)
0024: 00158593      addi a1, a1, 1
      a1  =               11 (       b)
0028: 00b62023      sw a1, 0(a2)
      m[10000] =               11 (       b)
0032: 00460613      addi a2, a2, 4
      a2  =                4 (       4)
0036: fed61ae3      bne a2, a3, 24
      pc  =               24 (      18)
0024: 00158593      addi a1, a1, 1
      a1  =               12 (       c)
0028: 00b62023      sw a1, 0(a2)
      m[10004] =               12 (       c)
0032: 00460613      addi a2, a2, 4
      a2  =                8 (       8)
0036: fed61ae3      bne a2, a3, 24
      pc  =               24 (      18)
0024: 00158593      addi a1, a1, 1
      a1  =               13 (       d)
0028: 00b62023      sw a1, 0(a2)
      m[10008] =               13 (       d)
0032: 00460613      addi a2, a2, 4
      a2  =               12 (       c)
0036: fed61ae3      bne a2, a3, 24
      pc  =               24 (      18)
0024: 00158593      addi a1, a1, 1
      a1  =               14 (       e)
0028: 00b62023      sw a1, 0(a2)
      m[1000c] =               14 (       e)
0032: 00460613      addi a2, a2, 4
      a2  =               16 (      10)
0036: fed61ae3      bne a2, a3, 24
      pc  =               24 (      18)
0024: 00158593      addi a1, a1, 1
      a1  =               15 (       f)
0028: 00b62023      sw a1, 0(a2)
      m[10010] =               15 (       f)
0032: 00460613      addi a2, a2, 4
      a2  =               20 (      14)
0036: fed61ae3      bne a2, a3, 24
      pc  =               24 (      18)
0024: 00158593      addi a1, a1, 1
      a1  =               16 (      10)
0028: 00b62023      sw a1, 0(a2)
      m[10014] =               16 (      10)
0032: 00460613      addi a2, a2, 4
      a2  =               24 (      18)
0036: fed61ae3      bne a2, a3, 24
      pc  =               24 (      18)
0024: 00158593      addi a1, a1, 1
      a1  =               17 (      11)
0028: 00b62023      sw a1, 0(a2)
      m[10018] =               17 (      11)
0032: 00460613      addi a2, a2, 4
      a2  =               28 (      1c)
0036: fed61ae3      bne a2, a3, 24
      pc  =               24 (      18)
0024: 00158593      addi a1, a1, 1
      a1  =               18 (      12)
0028: 00b62023      sw a1, 0(a2)
      m[1001c] =               18 (      12)
0032: 00460613      addi a2, a2, 4
      a2  =               32 (      20)
0036: fed61ae3      bne a2, a3, 24
      pc  =               24 (      18)
0024: 00158593      addi a1, a1, 1
      a1  =               19 (      13)
0028: 00b62023      sw a1, 0(a2)
      m[10020] =               19 (      13)
0032: 00460613      addi a2, a2, 4
      a2  =               36 (      24)
0036: fed61ae3      bne a2, a3, 24
      pc  =               24 (      18)
0024: 00158593      addi a1, a1, 1
      a1  =               20 (      14)
0028: 00b62023      sw a1, 0(a2)
      m[10024] =               20 (      14)
0032: 00460613      addi a2, a2, 4
      a2  =               40 (      28)
0036: fed61ae3      bne a2, a3, 24
      pc  =               40 (      28)
0040: 00000593      li a1, 0
      a1  =                0 (       0)
0044: 00000613      li a2, 0
      a2  =                0 (       0)
0048: 00062703      lw a4, 0(a2)
      a4  =               11 (       b)    (m[10000])
0052: 00460613      addi a2, a2, 4
      a2  =                4 (       4)
0056: 00e50533      add a0, a0, a4
      a0  =               11 (       b)
0060: fed61ae3      bne a2, a3, 48
      pc  =               48 (      30)
0048: 00062703      lw a4, 0(a2)
      a4  =               12 (       c)    (m[10004])
0052: 00460613      addi a2, a2, 4
      a2  =                8 (       8)
0056: 00e50533      add a0, a0, a4
      a0  =               23 (      17)
0060: fed61ae3      bne a2, a3, 48
      pc  =               48 (      30)
0048: 00062703      lw a4, 0(a2)
      a4  =               13 (       d)    (m[10008])
0052: 00460613      addi a2, a2, 4
      a2  =               12 (       c)
0056: 00e50533      add a0, a0, a4
      a0  =               36 (      24)
0060: fed61ae3      bne a2, a3, 48
      pc  =               48 (      30)
0048: 00062703      lw a4, 0(a2)
      a4  =               14 (       e)    (m[1000c])
0052: 00460613      addi a2, a2, 4
      a2  =               16 (      10)
0056: 00e50533      add a0, a0, a4
      a0  =               50 (      32)
0060: fed61ae3      bne a2, a3, 48
      pc  =               48 (      30)
0048: 00062703      lw a4, 0(a2)
      a4  =               15 (       f)    (m[10010])
0052: 00460613      addi a2, a2, 4
      a2  =               20 (      14)
0056: 00e50533      add a0, a0, a4
      a0  =               65 (      41)
0060: fed61ae3      bne a2, a3, 48
      pc  =               48 (      30)
0048: 00062703      lw a4, 0(a2)
      a4  =               16 (      10)    (m[10014])
0052: 00460613      addi a2, a2, 4
      a2  =               24 (      18)
0056: 00e50533      add a0, a0, a4
      a0  =               81 (      51)
0060: fed61ae3      bne a2, a3, 48
      pc  =               48 (      30)
0048: 00062703      lw a4, 0(a2)
      a4  =               17 (      11)    (m[10018])
0052: 00460613      addi a2, a2, 4
      a2  =               28 (      1c)
0056: 00e50533      add a0, a0, a4
      a0  =               98 (      62)
0060: fed61ae3      bne a2, a3, 48
      pc  =               48 (      30)
0048: 00062703      lw a4, 0(a2)
      a4  =               18 (      12)    (m[1001c])
0052: 00460613      addi a2, a2, 4
      a2  =               32 (      20)
0056: 00e50533      add a0, a0, a4
      a0  =              116 (      74)
0060: fed61ae3      bne a2, a3, 48
      pc  =               48 (      30)
0048: 00062703      lw a4, 0(a2)
      a4  =               19 (      13)    (m[10020])
0052: 00460613      addi a2, a2, 4
      a2  =               36 (      24)
0056: 00e50533      add a0, a0, a4
      a0  =              135 (      87)
0060: fed61ae3      bne a2, a3, 48
      pc  =               48 (      30)
0048: 00062703      lw a4, 0(a2)
      a4  =               20 (      14)    (m[10024])
0052: 00460613      addi a2, a2, 4
      a2  =               40 (      28)
0056: 00e50533      add a0, a0, a4
      a0  =              155 (      9b)
0060: fed61ae3      bne a2, a3, 48
      pc  =               64 (      40)
0064: 00a62023      sw a0, 0(a2)
      m[10028] =              155 (      9b)
0068: 00008067      ret
      pc  =                0 (       0)
ra  =                0 (       0)
sp  =            65536 (   10000)
gp  =                0 (       0)
tp  =                0 (       0)
t0  =                8 (       8)
t1  =                2 (       2)
t2  =                0 (       0)
s0  =                0 (       0)
s1  =                0 (       0)
a0  =              155 (      9b)
a1  =                0 (       0)
a2  =               40 (      28)
a3  =               40 (      28)
a4  =               20 (      14)
a5  =                0 (       0)
a6  =                0 (       0)
a7  =                0 (       0)
s2  =                0 (       0)
s3  =                0 (       0)
s4  =                0 (       0)
s5  =                0 (       0)
s6  =                0 (       0)
s7  =                0 (       0)
s8  =                0 (       0)
s9  =                0 (       0)
s10 =                0 (       0)
s11 =                0 (       0)
t3  =                0 (       0)
t4  =                0 (       0)
t5  =                0 (       0)
t6  =                0 (       0)
0000: 00000513      li a0, 0
      a0  =                0 (       0)
0004: 00000593      li a1, 0
      a1  =                0 (       0)
0008: 00000613      li a2, 0
      a2  =                0 (       0)
0012: 02860693      addi a3, a2, 40
      a3  =               40 (      28)
0016: 00158593      addi a1, a1, 1
      a1  =                1 (       1)
0020: 00b62023      sw a1, 0(a2)
      m[    0] =                1 (       1)
0024: 00460613      addi a2, a2, 4
      a2  =                4 (       4)
0028: fed61ae3      bne a2, a3, 16
      pc  =               16 (      10)
0016: 00158593      addi a1, a1, 1
      a1  =                2 (       2)
0020: 00b62023      sw a1, 0(a2)
      m[    4] =                2 (       2)
0024: 00460613      addi a2, a2, 4
      a2  =                8 (       8)
0028: fed61ae3      bne a2, a3, 16
      pc  =               16 (      10)
0016: 00158593      addi a1, a1, 1
      a1  =                3 (       3)
0020: 00b62023      sw a1, 0(a2)
      m[    8] =                3 (       3)
0024: 00460613      addi a2, a2, 4
      a2  =               12 (       c)
0028: fed61ae3      bne a2, a3, 16
      pc  =               16 (      10)
0016: 00158593      addi a1, a1, 1
      a1  =                4 (       4)
0020: 00b62023      sw a1, 0(a2)
      m[    c] =                4 (       4)
0024: 00460613      addi a2, a2, 4
      a2  =               16 (      10)
0028: fed61ae3      bne a2, a3, 16
      pc  =               16 (      10)
0016: 00158593      addi a1, a1, 1
      a1  =                5 (       5)
0020: 00b62023      sw a1, 0(a2)
      m[   10] =                5 (       5)
0024: 00460613      addi a2, a2, 4
      a2  =               20 (      14)
0028: fed61ae3      bne a2, a3, 16
      pc  =               16 (      10)
0016: 00158593      addi a1, a1, 1
      a1  =                6 (       6)
0020: 00b62023      sw a1, 0(a2)
      m[   14] =                6 (       6)
0024: 00460613      addi a2, a2, 4
      a2  =               24 (      18)
0028: fed61ae3      bne a2, a3, 16
      pc  =               16 (      10)
0016: 00158593      addi a1, a1, 1
      a1  =                7 (       7)
0020: 00b62023      sw a1, 0(a2)
      m[   18] =                7 (       7)
0024: 00460613      addi a2, a2, 4
      a2  =               28 (      1c)
0028: fed61ae3      bne a2, a3, 16
      pc  =               16 (      10)
0016: 00158593      addi a1, a1, 1
      a1  =                8 (       8)
0020: 00b62023      sw a1, 0(a2)
      m[   1c] =                8 (       8)
0024: 00460613      addi a2, a2, 4
      a2  =               32 (      20)
0028: fed61ae3      bne a2, a3, 16
      pc  =               16 (      10)
0016: 00158593      addi a1, a1, 1
      a1  =                9 (       9)
0020: 00b62023      sw a1, 0(a2)
      m[   20] =                9 (       9)
0024: 00460613      addi a2, a2, 4
      a2  =               36 (      24)
0028: fed61ae3      bne a2, a3, 16
      pc  =               16 (      10)
0016: 00158593      addi a1, a1, 1
      a1  =               10 (       a)
0020: 00b62023      sw a1, 0(a2)
      m[   24] =               10 (       a)
0024: 00460613      addi a2, a2, 4
      a2  =               40 (      28)
0028: fed61ae3      bne a2, a3, 16
      pc  =               32 (      20)
0032: 00000593      li a1, 0
      a1  =                0 (       0)
0036: 00000613      li a2, 0
      a2  =                0 (       0)
0040: 00062703      lw a4, 0(a2)
      a4  =                1 (       1)    (m[    0])
0044: 00460613      addi a2, a2, 4
      a2  =                4 (       4)
0048: 00e50533      add a0, a0, a4
      a0  =                1 (       1)
0052: fed61ae3      bne a2, a3, 40
      pc  =               40 (      28)
0040: 00062703      lw a4, 0(a2)
      a4  =                2 (       2)    (m[    4])
0044: 00460613      addi a2, a2, 4
      a2  =                8 (       8)
0048: 00e50533      add a0, a0, a4
      a0  =                3 (       3)
0052: fed61ae3      bne a2, a3, 40
      pc  =               40 (      28)
0040: 00062703      lw a4, 0(a2)
      a4  =                3 (       3)    (m[    8])
0044: 00460613      addi a2, a2, 4
      a2  =               12 (       c)
0048: 00e50533      add a0, a0, a4
      a0  =                6 (       6)
0052: fed61ae3      bne a2, a3, 40
      pc  =               40 (      28)
0040: 00062703      lw a4, 0(a2)
      a4  =                4 (       4)    (m[    c])
0044: 00460613      addi a2, a2, 4
      a2  =               16 (      10)
0048: 00e50533      add a0, a0, a4
      a0  =               10 (       a)
0052: fed61ae3      bne a2, a3, 40
      pc  =               40 (      28)
0040: 00062703      lw a4, 0(a2)
      a4  =                5 (       5)    (m[   10])
0044: 00460613      addi a2, a2, 4
      a2  =               20 (      14)
0048: 00e50533      add a0, a0, a4
      a0  =               15 (       f)
0052: fed61ae3      bne a2, a3, 40
      pc  =               40 (      28)
0040: 00062703      lw a4, 0(a2)
      a4  =                6 (       6)    (m[   14])
0044: 00460613      addi a2, a2, 4
      a2  =               24 (      18)
0048: 00e50533      add a0, a0, a4
      a0  =               21 (      15)
0052: fed61ae3      bne a2, a3, 40
      pc  =               40 (      28)
0040: 00062703      lw a4, 0(a2)
      a4  =                7 (       7)    (m[   18])
0044: 00460613      addi a2, a2, 4
      a2  =               28 (      1c)
0048: 00e50533      add a0, a0, a4
      a0  =               28 (      1c)
0052: fed61ae3      bne a2, a3, 40
      pc  =               40 (      28)
0040: 00062703      lw a4, 0(a2)
      a4  =                8 (       8)    (m[   1c])
0044: 00460613      addi a2, a2, 4
      a2  =               32 (      20)
0048: 00e50533      add a0, a0, a4
      a0  =               36 (      24)
0052: fed61ae3      bne a2, a3, 40
      pc  =               40 (      28)
0040: 00062703      lw a4, 0(a2)
      a4  =                9 (       9)    (m[   20])
0044: 00460613      addi a2, a2, 4
      a2  =               36 (      24)
0048: 00e50533      add a0, a0, a4
      a0  =               45 (      2d)
0052: fed61ae3      bne a2, a3, 40
      pc  =               40 (      28)
0040: 00062703      lw a4, 0(a2)
      a4  =               10 (       a)    (m[   24])
0044: 00460613      addi a2, a2, 4
      a2  =               40 (      28)
0048: 00e50533      add a0, a0, a4
      a0  =               55 (      37)
0052: fed61ae3      bne a2, a3, 40
      pc  =               56 (      38)
0056: 02800613      li a2, 40
      a2  =               40 (      28)
0060: 00a62023      sw a0, 0(a2)
      m[   28] =               55 (      37)
0064: 00100593      li a1, 1
      a1  =                1 (       1)
0068: 00200613      li a2, 2
      a2  =                2 (       2)
0072: 00010737      lui a4, 65536
      a4  =            65536 (   10000)
0076: 00070793      addi a5, a4, 0
      a5  =            65536 (   10000)
0080: 02872683      lw a3, 40(a4)
      a3  =              155 (      9b)    (m[10028])
0084: fe068ee3      beq a3, zero, 80
      pc  =               88 (      58)
0088: 00d50533      add a0, a0, a3
      a0  =              210 (      d2)
0092: 00f70733      add a4, a4, a5
      a4  =           131072 (   20000)
0096: 00158593      addi a1, a1, 1
      a1  =                2 (       2)
0100: fec596e3      bne a1, a2, 80
      pc  =              104 (      68)
0104: 02c00613      li a2, 44
      a2  =               44 (      2c)
0108: 00a62023      sw a0, 0(a2)
      m[   2c] =              210 (      d2)
0112: 00008067      ret
      pc  =                0 (       0)
ra  =                0 (       0)
sp  =            65536 (   10000)
gp  =                0 (       0)
tp  =                0 (       0)
t0  =                0 (       0)
t1  =                0 (       0)
t2  =                0 (       0)
s0  =                0 (       0)
s1  =                0 (       0)
a0  =              210 (      d2)
a1  =                2 (       2)
a2  =               44 (      2c)
a3  =              155 (      9b)
a4  =           131072 (   20000)
a5  =            65536 (   10000)
a6  =                0 (       0)
a7  =                0 (       0)
s2  =                0 (       0)
s3  =                0 (       0)
s4  =                0 (       0)
s5  =                0 (       0)
s6  =                0 (       0)
s7  =                0 (       0)
s8  =                0 (       0)
s9  =                0 (       0)
s10 =                0 (       0)
s11 =                0 (       0)
t3  =                0 (       0)
t4  =                0 (       0)
t5  =                0 (       0)
t6  =                0 (       0)
core 0: 101 fetched and decoded instructions in 273 cycles (ipc = 0.37)
data memory dump (non null words)
m[    0] =                1 (       1)
m[    4] =                2 (       2)
m[    8] =                3 (       3)
m[    c] =                4 (       4)
m[   10] =                5 (       5)
m[   14] =                6 (       6)
m[   18] =                7 (       7)
m[   1c] =                8 (       8)
m[   20] =                9 (       9)
m[   24] =               10 (       a)
m[   28] =               55 (      37)
m[   2c] =              210 (      d2)
core 1: 90 fetched and decoded instructions in 243 cycles (ipc = 0.37)
data memory dump (non null words)
m[10000] =               11 (       b)
m[10004] =               12 (       c)
m[10008] =               13 (       d)
m[1000c] =               14 (       e)
m[10010] =               15 (       f)
m[10014] =               16 (      10)
m[10018] =               17 (      11)
m[1001c] =               18 (      12)
m[10020] =               19 (      13)
m[10024] =               20 (      14)
m[10028] =              155 (      9b)
INFO: [SIM 1] CSim done with 0 errors.
INFO: [SIM 3] *************** CSIM finish ***************
