INFO: [SIM 2] *************** CSIM start ***************
INFO: [SIM 4] CSIM will launch GCC as the compiler.
   Compiling ../../../../testbench_seq_multicore_multicycle_ip.cpp in debug mode
   Compiling ../../../../compute.cpp in debug mode
   Compiling ../../../../decode.cpp in debug mode
   Compiling ../../../../disassemble.cpp in debug mode
   Compiling ../../../../emulate.cpp in debug mode
   Compiling ../../../../execute.cpp in debug mode
   Compiling ../../../../fetch.cpp in debug mode
   Compiling ../../../../immediate.cpp in debug mode
   Compiling ../../../../issue.cpp in debug mode
   Compiling ../../../../mem.cpp in debug mode
   Compiling ../../../../mem_access.cpp in debug mode
   Compiling ../../../../multicycle_pipeline_ip.cpp in debug mode
   Compiling ../../../../new_cycle.cpp in debug mode
   Compiling ../../../../print.cpp in debug mode
   Compiling ../../../../type.cpp in debug mode
   Compiling ../../../../wb.cpp in debug mode
   Generating csim.exe
0000: 00000513      li a0, 0
      a0  =                0 (       0)
0004: 00000593      li a1, 0
      a1  =                0 (       0)
0008: 00000613      li a2, 0
      a2  =                0 (       0)
0012: 02860693      addi a3, a2, 40
      a3  =               40 (      28)
0016: 00158593      addi a1, a1, 1
      a1  =                1 (       1)
0020: 00b62023      sw a1, 0(a2)
      m[    0] =                1 (       1)
0024: 00460613      addi a2, a2, 4
      a2  =                4 (       4)
0028: fed61ae3      bne a2, a3, 16
      pc  =               16 (      10)
0016: 00158593      addi a1, a1, 1
      a1  =                2 (       2)
0020: 00b62023      sw a1, 0(a2)
      m[    4] =                2 (       2)
0024: 00460613      addi a2, a2, 4
      a2  =                8 (       8)
0028: fed61ae3      bne a2, a3, 16
      pc  =               16 (      10)
0016: 00158593      addi a1, a1, 1
      a1  =                3 (       3)
0020: 00b62023      sw a1, 0(a2)
      m[    8] =                3 (       3)
0024: 00460613      addi a2, a2, 4
      a2  =               12 (       c)
0028: fed61ae3      bne a2, a3, 16
      pc  =               16 (      10)
0016: 00158593      addi a1, a1, 1
      a1  =                4 (       4)
0020: 00b62023      sw a1, 0(a2)
      m[    c] =                4 (       4)
0024: 00460613      addi a2, a2, 4
      a2  =               16 (      10)
0028: fed61ae3      bne a2, a3, 16
      pc  =               16 (      10)
0016: 00158593      addi a1, a1, 1
      a1  =                5 (       5)
0020: 00b62023      sw a1, 0(a2)
      m[   10] =                5 (       5)
0024: 00460613      addi a2, a2, 4
      a2  =               20 (      14)
0028: fed61ae3      bne a2, a3, 16
      pc  =               16 (      10)
0016: 00158593      addi a1, a1, 1
      a1  =                6 (       6)
0020: 00b62023      sw a1, 0(a2)
      m[   14] =                6 (       6)
0024: 00460613      addi a2, a2, 4
      a2  =               24 (      18)
0028: fed61ae3      bne a2, a3, 16
      pc  =               16 (      10)
0016: 00158593      addi a1, a1, 1
      a1  =                7 (       7)
0020: 00b62023      sw a1, 0(a2)
      m[   18] =                7 (       7)
0024: 00460613      addi a2, a2, 4
      a2  =               28 (      1c)
0028: fed61ae3      bne a2, a3, 16
      pc  =               16 (      10)
0016: 00158593      addi a1, a1, 1
      a1  =                8 (       8)
0020: 00b62023      sw a1, 0(a2)
      m[   1c] =                8 (       8)
0024: 00460613      addi a2, a2, 4
      a2  =               32 (      20)
0028: fed61ae3      bne a2, a3, 16
      pc  =               16 (      10)
0016: 00158593      addi a1, a1, 1
      a1  =                9 (       9)
0020: 00b62023      sw a1, 0(a2)
      m[   20] =                9 (       9)
0024: 00460613      addi a2, a2, 4
      a2  =               36 (      24)
0028: fed61ae3      bne a2, a3, 16
      pc  =               16 (      10)
0016: 00158593      addi a1, a1, 1
      a1  =               10 (       a)
0020: 00b62023      sw a1, 0(a2)
      m[   24] =               10 (       a)
0024: 00460613      addi a2, a2, 4
      a2  =               40 (      28)
0028: fed61ae3      bne a2, a3, 16
      pc  =               32 (      20)
0032: 00000593      li a1, 0
      a1  =                0 (       0)
0036: 00000613      li a2, 0
      a2  =                0 (       0)
0040: 00062703      lw a4, 0(a2)
      a4  =                1 (       1)    (m[    0])
0044: 00e50533      add a0, a0, a4
      a0  =                1 (       1)
0048: 00460613      addi a2, a2, 4
      a2  =                4 (       4)
0052: fed61ae3      bne a2, a3, 40
      pc  =               40 (      28)
0040: 00062703      lw a4, 0(a2)
      a4  =                2 (       2)    (m[    4])
0044: 00e50533      add a0, a0, a4
      a0  =                3 (       3)
0048: 00460613      addi a2, a2, 4
      a2  =                8 (       8)
0052: fed61ae3      bne a2, a3, 40
      pc  =               40 (      28)
0040: 00062703      lw a4, 0(a2)
      a4  =                3 (       3)    (m[    8])
0044: 00e50533      add a0, a0, a4
      a0  =                6 (       6)
0048: 00460613      addi a2, a2, 4
      a2  =               12 (       c)
0052: fed61ae3      bne a2, a3, 40
      pc  =               40 (      28)
0040: 00062703      lw a4, 0(a2)
      a4  =                4 (       4)    (m[    c])
0044: 00e50533      add a0, a0, a4
      a0  =               10 (       a)
0048: 00460613      addi a2, a2, 4
      a2  =               16 (      10)
0052: fed61ae3      bne a2, a3, 40
      pc  =               40 (      28)
0040: 00062703      lw a4, 0(a2)
      a4  =                5 (       5)    (m[   10])
0044: 00e50533      add a0, a0, a4
      a0  =               15 (       f)
0048: 00460613      addi a2, a2, 4
      a2  =               20 (      14)
0052: fed61ae3      bne a2, a3, 40
      pc  =               40 (      28)
0040: 00062703      lw a4, 0(a2)
      a4  =                6 (       6)    (m[   14])
0044: 00e50533      add a0, a0, a4
      a0  =               21 (      15)
0048: 00460613      addi a2, a2, 4
      a2  =               24 (      18)
0052: fed61ae3      bne a2, a3, 40
      pc  =               40 (      28)
0040: 00062703      lw a4, 0(a2)
      a4  =                7 (       7)    (m[   18])
0044: 00e50533      add a0, a0, a4
      a0  =               28 (      1c)
0048: 00460613      addi a2, a2, 4
      a2  =               28 (      1c)
0052: fed61ae3      bne a2, a3, 40
      pc  =               40 (      28)
0040: 00062703      lw a4, 0(a2)
      a4  =                8 (       8)    (m[   1c])
0044: 00e50533      add a0, a0, a4
      a0  =               36 (      24)
0048: 00460613      addi a2, a2, 4
      a2  =               32 (      20)
0052: fed61ae3      bne a2, a3, 40
      pc  =               40 (      28)
0040: 00062703      lw a4, 0(a2)
      a4  =                9 (       9)    (m[   20])
0044: 00e50533      add a0, a0, a4
      a0  =               45 (      2d)
0048: 00460613      addi a2, a2, 4
      a2  =               36 (      24)
0052: fed61ae3      bne a2, a3, 40
      pc  =               40 (      28)
0040: 00062703      lw a4, 0(a2)
      a4  =               10 (       a)    (m[   24])
0044: 00e50533      add a0, a0, a4
      a0  =               55 (      37)
0048: 00460613      addi a2, a2, 4
      a2  =               40 (      28)
0052: fed61ae3      bne a2, a3, 40
      pc  =               56 (      38)
0056: 00a62223      sw a0, 4(a2)
      m[   2c] =               55 (      37)
0060: 00008067      ret
      pc  =                0 (       0)
ra  =                0 (       0)
sp  =            65536 (   10000)
gp  =                0 (       0)
tp  =                0 (       0)
t0  =                0 (       0)
t1  =                0 (       0)
t2  =                0 (       0)
s0  =                0 (       0)
s1  =                0 (       0)
a0  =               55 (      37)
a1  =                0 (       0)
a2  =               40 (      28)
a3  =               40 (      28)
a4  =               10 (       a)
a5  =                0 (       0)
a6  =                0 (       0)
a7  =                0 (       0)
s2  =                0 (       0)
s3  =                0 (       0)
s4  =                0 (       0)
s5  =                0 (       0)
s6  =                0 (       0)
s7  =                0 (       0)
s8  =                0 (       0)
s9  =                0 (       0)
s10 =                0 (       0)
s11 =                0 (       0)
t3  =                0 (       0)
t4  =                0 (       0)
t5  =                0 (       0)
t6  =                0 (       0)
0000: 00000513      li a0, 0
      a0  =                0 (       0)
0004: 00000593      li a1, 0
      a1  =                0 (       0)
0008: 00000613      li a2, 0
      a2  =                0 (       0)
0012: 02860693      addi a3, a2, 40
      a3  =               40 (      28)
0016: 00158593      addi a1, a1, 1
      a1  =                1 (       1)
0020: 00b62023      sw a1, 0(a2)
      m[10000] =                1 (       1)
0024: 00460613      addi a2, a2, 4
      a2  =                4 (       4)
0028: fed61ae3      bne a2, a3, 16
      pc  =               16 (      10)
0016: 00158593      addi a1, a1, 1
      a1  =                2 (       2)
0020: 00b62023      sw a1, 0(a2)
      m[10004] =                2 (       2)
0024: 00460613      addi a2, a2, 4
      a2  =                8 (       8)
0028: fed61ae3      bne a2, a3, 16
      pc  =               16 (      10)
0016: 00158593      addi a1, a1, 1
      a1  =                3 (       3)
0020: 00b62023      sw a1, 0(a2)
      m[10008] =                3 (       3)
0024: 00460613      addi a2, a2, 4
      a2  =               12 (       c)
0028: fed61ae3      bne a2, a3, 16
      pc  =               16 (      10)
0016: 00158593      addi a1, a1, 1
      a1  =                4 (       4)
0020: 00b62023      sw a1, 0(a2)
      m[1000c] =                4 (       4)
0024: 00460613      addi a2, a2, 4
      a2  =               16 (      10)
0028: fed61ae3      bne a2, a3, 16
      pc  =               16 (      10)
0016: 00158593      addi a1, a1, 1
      a1  =                5 (       5)
0020: 00b62023      sw a1, 0(a2)
      m[10010] =                5 (       5)
0024: 00460613      addi a2, a2, 4
      a2  =               20 (      14)
0028: fed61ae3      bne a2, a3, 16
      pc  =               16 (      10)
0016: 00158593      addi a1, a1, 1
      a1  =                6 (       6)
0020: 00b62023      sw a1, 0(a2)
      m[10014] =                6 (       6)
0024: 00460613      addi a2, a2, 4
      a2  =               24 (      18)
0028: fed61ae3      bne a2, a3, 16
      pc  =               16 (      10)
0016: 00158593      addi a1, a1, 1
      a1  =                7 (       7)
0020: 00b62023      sw a1, 0(a2)
      m[10018] =                7 (       7)
0024: 00460613      addi a2, a2, 4
      a2  =               28 (      1c)
0028: fed61ae3      bne a2, a3, 16
      pc  =               16 (      10)
0016: 00158593      addi a1, a1, 1
      a1  =                8 (       8)
0020: 00b62023      sw a1, 0(a2)
      m[1001c] =                8 (       8)
0024: 00460613      addi a2, a2, 4
      a2  =               32 (      20)
0028: fed61ae3      bne a2, a3, 16
      pc  =               16 (      10)
0016: 00158593      addi a1, a1, 1
      a1  =                9 (       9)
0020: 00b62023      sw a1, 0(a2)
      m[10020] =                9 (       9)
0024: 00460613      addi a2, a2, 4
      a2  =               36 (      24)
0028: fed61ae3      bne a2, a3, 16
      pc  =               16 (      10)
0016: 00158593      addi a1, a1, 1
      a1  =               10 (       a)
0020: 00b62023      sw a1, 0(a2)
      m[10024] =               10 (       a)
0024: 00460613      addi a2, a2, 4
      a2  =               40 (      28)
0028: fed61ae3      bne a2, a3, 16
      pc  =               32 (      20)
0032: 00000593      li a1, 0
      a1  =                0 (       0)
0036: 00000613      li a2, 0
      a2  =                0 (       0)
0040: 00062703      lw a4, 0(a2)
      a4  =                1 (       1)    (m[10000])
0044: 00e50533      add a0, a0, a4
      a0  =                1 (       1)
0048: 00460613      addi a2, a2, 4
      a2  =                4 (       4)
0052: fed61ae3      bne a2, a3, 40
      pc  =               40 (      28)
0040: 00062703      lw a4, 0(a2)
      a4  =                2 (       2)    (m[10004])
0044: 00e50533      add a0, a0, a4
      a0  =                3 (       3)
0048: 00460613      addi a2, a2, 4
      a2  =                8 (       8)
0052: fed61ae3      bne a2, a3, 40
      pc  =               40 (      28)
0040: 00062703      lw a4, 0(a2)
      a4  =                3 (       3)    (m[10008])
0044: 00e50533      add a0, a0, a4
      a0  =                6 (       6)
0048: 00460613      addi a2, a2, 4
      a2  =               12 (       c)
0052: fed61ae3      bne a2, a3, 40
      pc  =               40 (      28)
0040: 00062703      lw a4, 0(a2)
      a4  =                4 (       4)    (m[1000c])
0044: 00e50533      add a0, a0, a4
      a0  =               10 (       a)
0048: 00460613      addi a2, a2, 4
      a2  =               16 (      10)
0052: fed61ae3      bne a2, a3, 40
      pc  =               40 (      28)
0040: 00062703      lw a4, 0(a2)
      a4  =                5 (       5)    (m[10010])
0044: 00e50533      add a0, a0, a4
      a0  =               15 (       f)
0048: 00460613      addi a2, a2, 4
      a2  =               20 (      14)
0052: fed61ae3      bne a2, a3, 40
      pc  =               40 (      28)
0040: 00062703      lw a4, 0(a2)
      a4  =                6 (       6)    (m[10014])
0044: 00e50533      add a0, a0, a4
      a0  =               21 (      15)
0048: 00460613      addi a2, a2, 4
      a2  =               24 (      18)
0052: fed61ae3      bne a2, a3, 40
      pc  =               40 (      28)
0040: 00062703      lw a4, 0(a2)
      a4  =                7 (       7)    (m[10018])
0044: 00e50533      add a0, a0, a4
      a0  =               28 (      1c)
0048: 00460613      addi a2, a2, 4
      a2  =               28 (      1c)
0052: fed61ae3      bne a2, a3, 40
      pc  =               40 (      28)
0040: 00062703      lw a4, 0(a2)
      a4  =                8 (       8)    (m[1001c])
0044: 00e50533      add a0, a0, a4
      a0  =               36 (      24)
0048: 00460613      addi a2, a2, 4
      a2  =               32 (      20)
0052: fed61ae3      bne a2, a3, 40
      pc  =               40 (      28)
0040: 00062703      lw a4, 0(a2)
      a4  =                9 (       9)    (m[10020])
0044: 00e50533      add a0, a0, a4
      a0  =               45 (      2d)
0048: 00460613      addi a2, a2, 4
      a2  =               36 (      24)
0052: fed61ae3      bne a2, a3, 40
      pc  =               40 (      28)
0040: 00062703      lw a4, 0(a2)
      a4  =               10 (       a)    (m[10024])
0044: 00e50533      add a0, a0, a4
      a0  =               55 (      37)
0048: 00460613      addi a2, a2, 4
      a2  =               40 (      28)
0052: fed61ae3      bne a2, a3, 40
      pc  =               56 (      38)
0056: 00a62223      sw a0, 4(a2)
      m[1002c] =               55 (      37)
0060: 00008067      ret
      pc  =                0 (       0)
ra  =                0 (       0)
sp  =            65536 (   10000)
gp  =                0 (       0)
tp  =                0 (       0)
t0  =                0 (       0)
t1  =                0 (       0)
t2  =                0 (       0)
s0  =                0 (       0)
s1  =                0 (       0)
a0  =               55 (      37)
a1  =                0 (       0)
a2  =               40 (      28)
a3  =               40 (      28)
a4  =               10 (       a)
a5  =                0 (       0)
a6  =                0 (       0)
a7  =                0 (       0)
s2  =                0 (       0)
s3  =                0 (       0)
s4  =                0 (       0)
s5  =                0 (       0)
s6  =                0 (       0)
s7  =                0 (       0)
s8  =                0 (       0)
s9  =                0 (       0)
s10 =                0 (       0)
s11 =                0 (       0)
t3  =                0 (       0)
t4  =                0 (       0)
t5  =                0 (       0)
t6  =                0 (       0)
0000: 00000513      li a0, 0
      a0  =                0 (       0)
0004: 00000593      li a1, 0
      a1  =                0 (       0)
0008: 00000613      li a2, 0
      a2  =                0 (       0)
0012: 02860693      addi a3, a2, 40
      a3  =               40 (      28)
0016: 00158593      addi a1, a1, 1
      a1  =                1 (       1)
0020: 00b62023      sw a1, 0(a2)
      m[20000] =                1 (       1)
0024: 00460613      addi a2, a2, 4
      a2  =                4 (       4)
0028: fed61ae3      bne a2, a3, 16
      pc  =               16 (      10)
0016: 00158593      addi a1, a1, 1
      a1  =                2 (       2)
0020: 00b62023      sw a1, 0(a2)
      m[20004] =                2 (       2)
0024: 00460613      addi a2, a2, 4
      a2  =                8 (       8)
0028: fed61ae3      bne a2, a3, 16
      pc  =               16 (      10)
0016: 00158593      addi a1, a1, 1
      a1  =                3 (       3)
0020: 00b62023      sw a1, 0(a2)
      m[20008] =                3 (       3)
0024: 00460613      addi a2, a2, 4
      a2  =               12 (       c)
0028: fed61ae3      bne a2, a3, 16
      pc  =               16 (      10)
0016: 00158593      addi a1, a1, 1
      a1  =                4 (       4)
0020: 00b62023      sw a1, 0(a2)
      m[2000c] =                4 (       4)
0024: 00460613      addi a2, a2, 4
      a2  =               16 (      10)
0028: fed61ae3      bne a2, a3, 16
      pc  =               16 (      10)
0016: 00158593      addi a1, a1, 1
      a1  =                5 (       5)
0020: 00b62023      sw a1, 0(a2)
      m[20010] =                5 (       5)
0024: 00460613      addi a2, a2, 4
      a2  =               20 (      14)
0028: fed61ae3      bne a2, a3, 16
      pc  =               16 (      10)
0016: 00158593      addi a1, a1, 1
      a1  =                6 (       6)
0020: 00b62023      sw a1, 0(a2)
      m[20014] =                6 (       6)
0024: 00460613      addi a2, a2, 4
      a2  =               24 (      18)
0028: fed61ae3      bne a2, a3, 16
      pc  =               16 (      10)
0016: 00158593      addi a1, a1, 1
      a1  =                7 (       7)
0020: 00b62023      sw a1, 0(a2)
      m[20018] =                7 (       7)
0024: 00460613      addi a2, a2, 4
      a2  =               28 (      1c)
0028: fed61ae3      bne a2, a3, 16
      pc  =               16 (      10)
0016: 00158593      addi a1, a1, 1
      a1  =                8 (       8)
0020: 00b62023      sw a1, 0(a2)
      m[2001c] =                8 (       8)
0024: 00460613      addi a2, a2, 4
      a2  =               32 (      20)
0028: fed61ae3      bne a2, a3, 16
      pc  =               16 (      10)
0016: 00158593      addi a1, a1, 1
      a1  =                9 (       9)
0020: 00b62023      sw a1, 0(a2)
      m[20020] =                9 (       9)
0024: 00460613      addi a2, a2, 4
      a2  =               36 (      24)
0028: fed61ae3      bne a2, a3, 16
      pc  =               16 (      10)
0016: 00158593      addi a1, a1, 1
      a1  =               10 (       a)
0020: 00b62023      sw a1, 0(a2)
      m[20024] =               10 (       a)
0024: 00460613      addi a2, a2, 4
      a2  =               40 (      28)
0028: fed61ae3      bne a2, a3, 16
      pc  =               32 (      20)
0032: 00000593      li a1, 0
      a1  =                0 (       0)
0036: 00000613      li a2, 0
      a2  =                0 (       0)
0040: 00062703      lw a4, 0(a2)
      a4  =                1 (       1)    (m[20000])
0044: 00e50533      add a0, a0, a4
      a0  =                1 (       1)
0048: 00460613      addi a2, a2, 4
      a2  =                4 (       4)
0052: fed61ae3      bne a2, a3, 40
      pc  =               40 (      28)
0040: 00062703      lw a4, 0(a2)
      a4  =                2 (       2)    (m[20004])
0044: 00e50533      add a0, a0, a4
      a0  =                3 (       3)
0048: 00460613      addi a2, a2, 4
      a2  =                8 (       8)
0052: fed61ae3      bne a2, a3, 40
      pc  =               40 (      28)
0040: 00062703      lw a4, 0(a2)
      a4  =                3 (       3)    (m[20008])
0044: 00e50533      add a0, a0, a4
      a0  =                6 (       6)
0048: 00460613      addi a2, a2, 4
      a2  =               12 (       c)
0052: fed61ae3      bne a2, a3, 40
      pc  =               40 (      28)
0040: 00062703      lw a4, 0(a2)
      a4  =                4 (       4)    (m[2000c])
0044: 00e50533      add a0, a0, a4
      a0  =               10 (       a)
0048: 00460613      addi a2, a2, 4
      a2  =               16 (      10)
0052: fed61ae3      bne a2, a3, 40
      pc  =               40 (      28)
0040: 00062703      lw a4, 0(a2)
      a4  =                5 (       5)    (m[20010])
0044: 00e50533      add a0, a0, a4
      a0  =               15 (       f)
0048: 00460613      addi a2, a2, 4
      a2  =               20 (      14)
0052: fed61ae3      bne a2, a3, 40
      pc  =               40 (      28)
0040: 00062703      lw a4, 0(a2)
      a4  =                6 (       6)    (m[20014])
0044: 00e50533      add a0, a0, a4
      a0  =               21 (      15)
0048: 00460613      addi a2, a2, 4
      a2  =               24 (      18)
0052: fed61ae3      bne a2, a3, 40
      pc  =               40 (      28)
0040: 00062703      lw a4, 0(a2)
      a4  =                7 (       7)    (m[20018])
0044: 00e50533      add a0, a0, a4
      a0  =               28 (      1c)
0048: 00460613      addi a2, a2, 4
      a2  =               28 (      1c)
0052: fed61ae3      bne a2, a3, 40
      pc  =               40 (      28)
0040: 00062703      lw a4, 0(a2)
      a4  =                8 (       8)    (m[2001c])
0044: 00e50533      add a0, a0, a4
      a0  =               36 (      24)
0048: 00460613      addi a2, a2, 4
      a2  =               32 (      20)
0052: fed61ae3      bne a2, a3, 40
      pc  =               40 (      28)
0040: 00062703      lw a4, 0(a2)
      a4  =                9 (       9)    (m[20020])
0044: 00e50533      add a0, a0, a4
      a0  =               45 (      2d)
0048: 00460613      addi a2, a2, 4
      a2  =               36 (      24)
0052: fed61ae3      bne a2, a3, 40
      pc  =               40 (      28)
0040: 00062703      lw a4, 0(a2)
      a4  =               10 (       a)    (m[20024])
0044: 00e50533      add a0, a0, a4
      a0  =               55 (      37)
0048: 00460613      addi a2, a2, 4
      a2  =               40 (      28)
0052: fed61ae3      bne a2, a3, 40
      pc  =               56 (      38)
0056: 00a62223      sw a0, 4(a2)
      m[2002c] =               55 (      37)
0060: 00008067      ret
      pc  =                0 (       0)
ra  =                0 (       0)
sp  =            65536 (   10000)
gp  =                0 (       0)
tp  =                0 (       0)
t0  =                0 (       0)
t1  =                0 (       0)
t2  =                0 (       0)
s0  =                0 (       0)
s1  =                0 (       0)
a0  =               55 (      37)
a1  =                0 (       0)
a2  =               40 (      28)
a3  =               40 (      28)
a4  =               10 (       a)
a5  =                0 (       0)
a6  =                0 (       0)
a7  =                0 (       0)
s2  =                0 (       0)
s3  =                0 (       0)
s4  =                0 (       0)
s5  =                0 (       0)
s6  =                0 (       0)
s7  =                0 (       0)
s8  =                0 (       0)
s9  =                0 (       0)
s10 =                0 (       0)
s11 =                0 (       0)
t3  =                0 (       0)
t4  =                0 (       0)
t5  =                0 (       0)
t6  =                0 (       0)
0000: 00000513      li a0, 0
      a0  =                0 (       0)
0004: 00000593      li a1, 0
      a1  =                0 (       0)
0008: 00000613      li a2, 0
      a2  =                0 (       0)
0012: 02860693      addi a3, a2, 40
      a3  =               40 (      28)
0016: 00158593      addi a1, a1, 1
      a1  =                1 (       1)
0020: 00b62023      sw a1, 0(a2)
      m[30000] =                1 (       1)
0024: 00460613      addi a2, a2, 4
      a2  =                4 (       4)
0028: fed61ae3      bne a2, a3, 16
      pc  =               16 (      10)
0016: 00158593      addi a1, a1, 1
      a1  =                2 (       2)
0020: 00b62023      sw a1, 0(a2)
      m[30004] =                2 (       2)
0024: 00460613      addi a2, a2, 4
      a2  =                8 (       8)
0028: fed61ae3      bne a2, a3, 16
      pc  =               16 (      10)
0016: 00158593      addi a1, a1, 1
      a1  =                3 (       3)
0020: 00b62023      sw a1, 0(a2)
      m[30008] =                3 (       3)
0024: 00460613      addi a2, a2, 4
      a2  =               12 (       c)
0028: fed61ae3      bne a2, a3, 16
      pc  =               16 (      10)
0016: 00158593      addi a1, a1, 1
      a1  =                4 (       4)
0020: 00b62023      sw a1, 0(a2)
      m[3000c] =                4 (       4)
0024: 00460613      addi a2, a2, 4
      a2  =               16 (      10)
0028: fed61ae3      bne a2, a3, 16
      pc  =               16 (      10)
0016: 00158593      addi a1, a1, 1
      a1  =                5 (       5)
0020: 00b62023      sw a1, 0(a2)
      m[30010] =                5 (       5)
0024: 00460613      addi a2, a2, 4
      a2  =               20 (      14)
0028: fed61ae3      bne a2, a3, 16
      pc  =               16 (      10)
0016: 00158593      addi a1, a1, 1
      a1  =                6 (       6)
0020: 00b62023      sw a1, 0(a2)
      m[30014] =                6 (       6)
0024: 00460613      addi a2, a2, 4
      a2  =               24 (      18)
0028: fed61ae3      bne a2, a3, 16
      pc  =               16 (      10)
0016: 00158593      addi a1, a1, 1
      a1  =                7 (       7)
0020: 00b62023      sw a1, 0(a2)
      m[30018] =                7 (       7)
0024: 00460613      addi a2, a2, 4
      a2  =               28 (      1c)
0028: fed61ae3      bne a2, a3, 16
      pc  =               16 (      10)
0016: 00158593      addi a1, a1, 1
      a1  =                8 (       8)
0020: 00b62023      sw a1, 0(a2)
      m[3001c] =                8 (       8)
0024: 00460613      addi a2, a2, 4
      a2  =               32 (      20)
0028: fed61ae3      bne a2, a3, 16
      pc  =               16 (      10)
0016: 00158593      addi a1, a1, 1
      a1  =                9 (       9)
0020: 00b62023      sw a1, 0(a2)
      m[30020] =                9 (       9)
0024: 00460613      addi a2, a2, 4
      a2  =               36 (      24)
0028: fed61ae3      bne a2, a3, 16
      pc  =               16 (      10)
0016: 00158593      addi a1, a1, 1
      a1  =               10 (       a)
0020: 00b62023      sw a1, 0(a2)
      m[30024] =               10 (       a)
0024: 00460613      addi a2, a2, 4
      a2  =               40 (      28)
0028: fed61ae3      bne a2, a3, 16
      pc  =               32 (      20)
0032: 00000593      li a1, 0
      a1  =                0 (       0)
0036: 00000613      li a2, 0
      a2  =                0 (       0)
0040: 00062703      lw a4, 0(a2)
      a4  =                1 (       1)    (m[30000])
0044: 00e50533      add a0, a0, a4
      a0  =                1 (       1)
0048: 00460613      addi a2, a2, 4
      a2  =                4 (       4)
0052: fed61ae3      bne a2, a3, 40
      pc  =               40 (      28)
0040: 00062703      lw a4, 0(a2)
      a4  =                2 (       2)    (m[30004])
0044: 00e50533      add a0, a0, a4
      a0  =                3 (       3)
0048: 00460613      addi a2, a2, 4
      a2  =                8 (       8)
0052: fed61ae3      bne a2, a3, 40
      pc  =               40 (      28)
0040: 00062703      lw a4, 0(a2)
      a4  =                3 (       3)    (m[30008])
0044: 00e50533      add a0, a0, a4
      a0  =                6 (       6)
0048: 00460613      addi a2, a2, 4
      a2  =               12 (       c)
0052: fed61ae3      bne a2, a3, 40
      pc  =               40 (      28)
0040: 00062703      lw a4, 0(a2)
      a4  =                4 (       4)    (m[3000c])
0044: 00e50533      add a0, a0, a4
      a0  =               10 (       a)
0048: 00460613      addi a2, a2, 4
      a2  =               16 (      10)
0052: fed61ae3      bne a2, a3, 40
      pc  =               40 (      28)
0040: 00062703      lw a4, 0(a2)
      a4  =                5 (       5)    (m[30010])
0044: 00e50533      add a0, a0, a4
      a0  =               15 (       f)
0048: 00460613      addi a2, a2, 4
      a2  =               20 (      14)
0052: fed61ae3      bne a2, a3, 40
      pc  =               40 (      28)
0040: 00062703      lw a4, 0(a2)
      a4  =                6 (       6)    (m[30014])
0044: 00e50533      add a0, a0, a4
      a0  =               21 (      15)
0048: 00460613      addi a2, a2, 4
      a2  =               24 (      18)
0052: fed61ae3      bne a2, a3, 40
      pc  =               40 (      28)
0040: 00062703      lw a4, 0(a2)
      a4  =                7 (       7)    (m[30018])
0044: 00e50533      add a0, a0, a4
      a0  =               28 (      1c)
0048: 00460613      addi a2, a2, 4
      a2  =               28 (      1c)
0052: fed61ae3      bne a2, a3, 40
      pc  =               40 (      28)
0040: 00062703      lw a4, 0(a2)
      a4  =                8 (       8)    (m[3001c])
0044: 00e50533      add a0, a0, a4
      a0  =               36 (      24)
0048: 00460613      addi a2, a2, 4
      a2  =               32 (      20)
0052: fed61ae3      bne a2, a3, 40
      pc  =               40 (      28)
0040: 00062703      lw a4, 0(a2)
      a4  =                9 (       9)    (m[30020])
0044: 00e50533      add a0, a0, a4
      a0  =               45 (      2d)
0048: 00460613      addi a2, a2, 4
      a2  =               36 (      24)
0052: fed61ae3      bne a2, a3, 40
      pc  =               40 (      28)
0040: 00062703      lw a4, 0(a2)
      a4  =               10 (       a)    (m[30024])
0044: 00e50533      add a0, a0, a4
      a0  =               55 (      37)
0048: 00460613      addi a2, a2, 4
      a2  =               40 (      28)
0052: fed61ae3      bne a2, a3, 40
      pc  =               56 (      38)
0056: 00a62223      sw a0, 4(a2)
      m[3002c] =               55 (      37)
0060: 00008067      ret
      pc  =                0 (       0)
ra  =                0 (       0)
sp  =            65536 (   10000)
gp  =                0 (       0)
tp  =                0 (       0)
t0  =                0 (       0)
t1  =                0 (       0)
t2  =                0 (       0)
s0  =                0 (       0)
s1  =                0 (       0)
a0  =               55 (      37)
a1  =                0 (       0)
a2  =               40 (      28)
a3  =               40 (      28)
a4  =               10 (       a)
a5  =                0 (       0)
a6  =                0 (       0)
a7  =                0 (       0)
s2  =                0 (       0)
s3  =                0 (       0)
s4  =                0 (       0)
s5  =                0 (       0)
s6  =                0 (       0)
s7  =                0 (       0)
s8  =                0 (       0)
s9  =                0 (       0)
s10 =                0 (       0)
s11 =                0 (       0)
t3  =                0 (       0)
t4  =                0 (       0)
t5  =                0 (       0)
t6  =                0 (       0)
core 0: 88 fetched and decoded instructions in 279 cycles (ipc = 0.32)
data memory dump (non null words)
m[    0] =                1 (       1)
m[    4] =                2 (       2)
m[    8] =                3 (       3)
m[    c] =                4 (       4)
m[   10] =                5 (       5)
m[   14] =                6 (       6)
m[   18] =                7 (       7)
m[   1c] =                8 (       8)
m[   20] =                9 (       9)
m[   24] =               10 (       a)
m[   2c] =               55 (      37)
core 1: 88 fetched and decoded instructions in 279 cycles (ipc = 0.32)
data memory dump (non null words)
m[10000] =                1 (       1)
m[10004] =                2 (       2)
m[10008] =                3 (       3)
m[1000c] =                4 (       4)
m[10010] =                5 (       5)
m[10014] =                6 (       6)
m[10018] =                7 (       7)
m[1001c] =                8 (       8)
m[10020] =                9 (       9)
m[10024] =               10 (       a)
m[1002c] =               55 (      37)
core 2: 88 fetched and decoded instructions in 279 cycles (ipc = 0.32)
data memory dump (non null words)
m[20000] =                1 (       1)
m[20004] =                2 (       2)
m[20008] =                3 (       3)
m[2000c] =                4 (       4)
m[20010] =                5 (       5)
m[20014] =                6 (       6)
m[20018] =                7 (       7)
m[2001c] =                8 (       8)
m[20020] =                9 (       9)
m[20024] =               10 (       a)
m[2002c] =               55 (      37)
core 3: 88 fetched and decoded instructions in 279 cycles (ipc = 0.32)
data memory dump (non null words)
m[30000] =                1 (       1)
m[30004] =                2 (       2)
m[30008] =                3 (       3)
m[3000c] =                4 (       4)
m[30010] =                5 (       5)
m[30014] =                6 (       6)
m[30018] =                7 (       7)
m[3001c] =                8 (       8)
m[30020] =                9 (       9)
m[30024] =               10 (       a)
m[3002c] =               55 (      37)
INFO: [SIM 1] CSim done with 0 errors.
INFO: [SIM 3] *************** CSIM finish ***************
